; Function Attrs: nounwind uwtable
define void @bufferevent_trigger_event(ptr noundef %0, i16 noundef signext %1, i32 noundef %2) local_unnamed_addr #0 {
  %4 = getelementptr inbounds nuw i8, ptr %0, i64 448
  %5 = load ptr, ptr %4, align 8
  %.not.i = icmp eq ptr %5, null
  br i1 %.not.i, label %bufferevent_incref_and_lock_.exit, label %6

6:                                                ; preds = %3
  %7 = load ptr, ptr getelementptr inbounds nuw (i8, ptr @evthread_lock_fns_, i64 24), align 8
  %8 = tail call i32 %7(i32 noundef 0, ptr noundef nonnull %5) #7
  br label %bufferevent_incref_and_lock_.exit

bufferevent_incref_and_lock_.exit:                ; preds = %3, %6
  %9 = getelementptr inbounds nuw i8, ptr %0, i64 444
  %10 = load i32, ptr %9, align 4
  %11 = add nsw i32 %10, 1
  store i32 %11, ptr %9, align 4
  %12 = getelementptr inbounds nuw i8, ptr %0, i64 320
  %13 = load ptr, ptr %12, align 8
  %14 = icmp eq ptr %13, null
  br i1 %14, label %bufferevent_run_eventcb_.exit, label %15

15:                                               ; preds = %bufferevent_incref_and_lock_.exit
  %16 = getelementptr inbounds nuw i8, ptr %0, i64 440
  %17 = load i32, ptr %16, align 8
  %18 = or i32 %17, %2
  %19 = and i32 %18, 4
  %.not.i4 = icmp eq i32 %19, 0
  br i1 %.not.i4, label %42, label %20

20:                                               ; preds = %15
  %21 = getelementptr inbounds nuw i8, ptr %0, i64 386
  %22 = load i16, ptr %21, align 2
  %23 = or i16 %22, %1
  store i16 %23, ptr %21, align 2
  %24 = tail call ptr @__errno_location() #8
  %25 = load i32, ptr %24, align 4
  %26 = getelementptr inbounds nuw i8, ptr %0, i64 392
  store i32 %25, ptr %26, align 8
  %27 = load ptr, ptr %0, align 8
  %28 = getelementptr inbounds nuw i8, ptr %0, i64 400
  %29 = tail call i32 @event_deferred_cb_schedule_(ptr noundef %27, ptr noundef nonnull %28) #7
  %.not13.i = icmp eq i32 %29, 0
  br i1 %.not13.i, label %bufferevent_run_eventcb_.exit, label %30

30:                                               ; preds = %20
  %31 = load ptr, ptr %4, align 8
  %.not.i.i = icmp eq ptr %31, null
  br i1 %.not.i.i, label %.thread.i.i, label %34

.thread.i.i:                                      ; preds = %30
  %32 = load i32, ptr %9, align 4
  %33 = add nsw i32 %32, 1
  store i32 %33, ptr %9, align 4
  br label %bufferevent_run_eventcb_.exit

34:                                               ; preds = %30
  %35 = load ptr, ptr getelementptr inbounds nuw (i8, ptr @evthread_lock_fns_, i64 24), align 8
  %36 = tail call i32 %35(i32 noundef 0, ptr noundef nonnull %31) #7
  %.pr.i.i = load ptr, ptr %4, align 8
  %37 = load i32, ptr %9, align 4
  %38 = add nsw i32 %37, 1
  store i32 %38, ptr %9, align 4
  %.not9.i.i = icmp eq ptr %.pr.i.i, null
  br i1 %.not9.i.i, label %bufferevent_run_eventcb_.exit, label %39

39:                                               ; preds = %34
  %40 = load ptr, ptr getelementptr inbounds nuw (i8, ptr @evthread_lock_fns_, i64 32), align 8
  %41 = tail call i32 %40(i32 noundef 0, ptr noundef nonnull %.pr.i.i) #7
  br label %bufferevent_run_eventcb_.exit

42:                                               ; preds = %15
  %43 = getelementptr inbounds nuw i8, ptr %0, i64 328
  %44 = load ptr, ptr %43, align 8
  tail call void %13(ptr noundef nonnull %0, i16 noundef signext %1, ptr noundef %44) #7
  br label %bufferevent_run_eventcb_.exit

bufferevent_run_eventcb_.exit:                    ; preds = %bufferevent_incref_and_lock_.exit, %20, %.thread.i.i, %34, %39, %42
  %45 = tail call i32 @bufferevent_decref_and_unlock_(ptr noundef nonnull %0)
  ret void
}